target datalayout = "e-m:e-p270:32:32-p271:32:32-p272:64:64-i64:64-i128:128-f80:128-n8:16:32:64-S128"
target triple = "x86_64-pc-linux-gnu"

%struct.global_State = type { ptr, ptr, %struct.GCState, %struct.GCstr, i8, i8, i8, i8, %struct.StrInternState, i32, %struct.GCRef, %struct.SBuf, %union.TValue, %union.TValue, %struct.Node, %union.TValue, %struct.GCupval, i32, i32, ptr, ptr, ptr, i32, i32, %struct.GCRef, %struct.MRef, %struct.MRef, %struct.PRNGState, [39 x %struct.GCRef] }
%struct.GCState = type { i64, i64, i8, i8, i8, i8, i32, %struct.GCRef, %struct.MRef, %struct.GCRef, %struct.GCRef, %struct.GCRef, %struct.GCRef, i64, i64, i32, i32, %struct.MRef }
%struct.GCstr = type { %struct.GCRef, i8, i8, i8, i8, i32, i32, i32 }
%struct.StrInternState = type { ptr, i32, i32, i32, i8, i8, i8, i8, i64 }
%struct.SBuf = type { ptr, ptr, ptr, %struct.MRef }
%struct.Node = type { %union.TValue, %union.TValue, %struct.MRef }
%union.TValue = type { i64 }
%struct.GCupval = type { %struct.GCRef, i8, i8, i8, i8, %union.anon, %struct.MRef, i32 }
%union.anon = type { %struct.anon.1 }
%struct.anon.1 = type { %struct.GCRef, %struct.GCRef }
%struct.GCRef = type { i64 }
%struct.MRef = type { i64 }
%struct.PRNGState = type { [4 x i64] }
%struct.lua_State = type { %struct.GCRef, i8, i8, i8, i8, %struct.MRef, %struct.GCRef, ptr, ptr, %struct.MRef, %struct.MRef, %struct.GCRef, %struct.GCRef, ptr, i32 }

; Function Attrs: nounwind uwtable
define hidden void @lj_gc_fullgc(ptr noundef %0) #0 {
  %2 = alloca ptr, align 8
  %3 = alloca ptr, align 8
  %4 = alloca i32, align 4
  store ptr %0, ptr %2, align 8, !tbaa !37
  call void @llvm.lifetime.start.p0(i64 8, ptr %3) #7
  %5 = load ptr, ptr %2, align 8, !tbaa !37
  %6 = getelementptr inbounds nuw %struct.lua_State, ptr %5, i32 0, i32 5
  %7 = getelementptr inbounds nuw %struct.MRef, ptr %6, i32 0, i32 0
  %8 = load i64, ptr %7, align 8, !tbaa !39
  %9 = inttoptr i64 %8 to ptr
  store ptr %9, ptr %3, align 8, !tbaa !4
  call void @llvm.lifetime.start.p0(i64 4, ptr %4) #7
  %10 = load ptr, ptr %3, align 8, !tbaa !4
  %11 = getelementptr inbounds nuw %struct.global_State, ptr %10, i32 0, i32 9
  %12 = load volatile i32, ptr %11, align 8, !tbaa !80
  store i32 %12, ptr %4, align 4, !tbaa !9
  %13 = load ptr, ptr %3, align 8, !tbaa !4
  %14 = getelementptr inbounds nuw %struct.global_State, ptr %13, i32 0, i32 9
  store volatile i32 -3, ptr %14, align 8, !tbaa !80
  %15 = load ptr, ptr %3, align 8, !tbaa !4
  %16 = getelementptr inbounds nuw %struct.global_State, ptr %15, i32 0, i32 2
  %17 = getelementptr inbounds nuw %struct.GCState, ptr %16, i32 0, i32 3
  %18 = load i8, ptr %17, align 1, !tbaa !84
  %19 = zext i8 %18 to i32
  %20 = icmp sle i32 %19, 2
  br i1 %20, label %21, label %48

21:                                               ; preds = %1
  %22 = load ptr, ptr %3, align 8, !tbaa !4
  %23 = getelementptr inbounds nuw %struct.global_State, ptr %22, i32 0, i32 2
  %24 = getelementptr inbounds nuw %struct.GCState, ptr %23, i32 0, i32 7
  %25 = ptrtoint ptr %24 to i64
  %26 = load ptr, ptr %3, align 8, !tbaa !4
  %27 = getelementptr inbounds nuw %struct.global_State, ptr %26, i32 0, i32 2
  %28 = getelementptr inbounds nuw %struct.GCState, ptr %27, i32 0, i32 8
  %29 = getelementptr inbounds nuw %struct.MRef, ptr %28, i32 0, i32 0
  store i64 %25, ptr %29, align 8, !tbaa !91
  %30 = load ptr, ptr %3, align 8, !tbaa !4
  %31 = getelementptr inbounds nuw %struct.global_State, ptr %30, i32 0, i32 2
  %32 = getelementptr inbounds nuw %struct.GCState, ptr %31, i32 0, i32 9
  %33 = getelementptr inbounds nuw %struct.GCRef, ptr %32, i32 0, i32 0
  store i64 0, ptr %33, align 8, !tbaa !88
  %34 = load ptr, ptr %3, align 8, !tbaa !4
  %35 = getelementptr inbounds nuw %struct.global_State, ptr %34, i32 0, i32 2
  %36 = getelementptr inbounds nuw %struct.GCState, ptr %35, i32 0, i32 10
  %37 = getelementptr inbounds nuw %struct.GCRef, ptr %36, i32 0, i32 0
  store i64 0, ptr %37, align 8, !tbaa !98
  %38 = load ptr, ptr %3, align 8, !tbaa !4
  %39 = getelementptr inbounds nuw %struct.global_State, ptr %38, i32 0, i32 2
  %40 = getelementptr inbounds nuw %struct.GCState, ptr %39, i32 0, i32 11
  %41 = getelementptr inbounds nuw %struct.GCRef, ptr %40, i32 0, i32 0
  store i64 0, ptr %41, align 8, !tbaa !99
  %42 = load ptr, ptr %3, align 8, !tbaa !4
  %43 = getelementptr inbounds nuw %struct.global_State, ptr %42, i32 0, i32 2
  %44 = getelementptr inbounds nuw %struct.GCState, ptr %43, i32 0, i32 3
  store i8 3, ptr %44, align 1, !tbaa !84
  %45 = load ptr, ptr %3, align 8, !tbaa !4
  %46 = getelementptr inbounds nuw %struct.global_State, ptr %45, i32 0, i32 2
  %47 = getelementptr inbounds nuw %struct.GCState, ptr %46, i32 0, i32 6
  store i32 0, ptr %47, align 4, !tbaa !90
  br label %48

48:                                               ; preds = %21, %1
  br label %49

49:                                               ; preds = %65, %48
  %50 = load ptr, ptr %3, align 8, !tbaa !4
  %51 = getelementptr inbounds nuw %struct.global_State, ptr %50, i32 0, i32 2
  %52 = getelementptr inbounds nuw %struct.GCState, ptr %51, i32 0, i32 3
  %53 = load i8, ptr %52, align 1, !tbaa !84
  %54 = zext i8 %53 to i32
  %55 = icmp eq i32 %54, 3
  br i1 %55, label %63, label %56

56:                                               ; preds = %49
  %57 = load ptr, ptr %3, align 8, !tbaa !4
  %58 = getelementptr inbounds nuw %struct.global_State, ptr %57, i32 0, i32 2
  %59 = getelementptr inbounds nuw %struct.GCState, ptr %58, i32 0, i32 3
  %60 = load i8, ptr %59, align 1, !tbaa !84
  %61 = zext i8 %60 to i32
  %62 = icmp eq i32 %61, 4
  br label %63

63:                                               ; preds = %56, %49
  %64 = phi i1 [ true, %49 ], [ %62, %56 ]
  br i1 %64, label %65, label %68

65:                                               ; preds = %63
  %66 = load ptr, ptr %2, align 8, !tbaa !37
  %67 = call i64 @gc_onestep(ptr noundef %66)
  br label %49, !llvm.loop !100

68:                                               ; preds = %63
  %69 = load ptr, ptr %3, align 8, !tbaa !4
  %70 = getelementptr inbounds nuw %struct.global_State, ptr %69, i32 0, i32 2
  %71 = getelementptr inbounds nuw %struct.GCState, ptr %70, i32 0, i32 3
  store i8 0, ptr %71, align 1, !tbaa !84
  br label %72

72:                                               ; preds = %75, %68
  %73 = load ptr, ptr %2, align 8, !tbaa !37
  %74 = call i64 @gc_onestep(ptr noundef %73)
  br label %75

75:                                               ; preds = %72
  %76 = load ptr, ptr %3, align 8, !tbaa !4
  %77 = getelementptr inbounds nuw %struct.global_State, ptr %76, i32 0, i32 2
  %78 = getelementptr inbounds nuw %struct.GCState, ptr %77, i32 0, i32 3
  %79 = load i8, ptr %78, align 1, !tbaa !84
  %80 = zext i8 %79 to i32
  %81 = icmp ne i32 %80, 0
  br i1 %81, label %72, label %82, !llvm.loop !101

82:                                               ; preds = %75
  %83 = load ptr, ptr %3, align 8, !tbaa !4
  %84 = getelementptr inbounds nuw %struct.global_State, ptr %83, i32 0, i32 2
  %85 = getelementptr inbounds nuw %struct.GCState, ptr %84, i32 0, i32 14
  %86 = load i64, ptr %85, align 8, !tbaa !85
  %87 = udiv i64 %86, 100
  %88 = load ptr, ptr %3, align 8, !tbaa !4
  %89 = getelementptr inbounds nuw %struct.global_State, ptr %88, i32 0, i32 2
  %90 = getelementptr inbounds nuw %struct.GCState, ptr %89, i32 0, i32 16
  %91 = load i32, ptr %90, align 4, !tbaa !86
  %92 = zext i32 %91 to i64
  %93 = mul i64 %87, %92
  %94 = load ptr, ptr %3, align 8, !tbaa !4
  %95 = getelementptr inbounds nuw %struct.global_State, ptr %94, i32 0, i32 2
  %96 = getelementptr inbounds nuw %struct.GCState, ptr %95, i32 0, i32 1
  store i64 %93, ptr %96, align 8, !tbaa !56
  %97 = load i32, ptr %4, align 4, !tbaa !9
  %98 = load ptr, ptr %3, align 8, !tbaa !4
  %99 = getelementptr inbounds nuw %struct.global_State, ptr %98, i32 0, i32 9
  store volatile i32 %97, ptr %99, align 8, !tbaa !80
  call void @llvm.lifetime.end.p0(i64 4, ptr %4) #7
  call void @llvm.lifetime.end.p0(i64 8, ptr %3) #7
  ret void
}