; Function Attrs: nounwind uwtable
define hidden void @lj_gc_fullgc(ptr noundef %0) local_unnamed_addr #0 {
  %2 = getelementptr inbounds nuw i8, ptr %0, i64 16
  %3 = load i64, ptr %2, align 8, !tbaa !30
  %4 = inttoptr i64 %3 to ptr
  %5 = getelementptr inbounds nuw i8, ptr %4, i64 184
  %6 = load volatile i32, ptr %5, align 8, !tbaa !66
  store volatile i32 -3, ptr %5, align 8, !tbaa !66
  %7 = getelementptr inbounds nuw i8, ptr %4, i64 33
  %8 = load i8, ptr %7, align 1, !tbaa !70
  %9 = icmp ult i8 %8, 3
  br i1 %9, label %.thread, label %15

.thread:                                          ; preds = %1
  %10 = getelementptr inbounds nuw i8, ptr %4, i64 40
  %11 = ptrtoint ptr %10 to i64
  %12 = getelementptr inbounds nuw i8, ptr %4, i64 48
  store i64 %11, ptr %12, align 8, !tbaa !91
  %13 = getelementptr inbounds nuw i8, ptr %4, i64 56
  tail call void @llvm.memset.p0.i64(ptr noundef nonnull align 8 dereferenceable(24) %13, i8 0, i64 24, i1 false)
  store i8 3, ptr %7, align 1, !tbaa !70
  %14 = getelementptr inbounds nuw i8, ptr %4, i64 36
  store i32 0, ptr %14, align 4, !tbaa !92
  br label %.critedge.preheader

15:                                               ; preds = %1
  %.off21 = add i8 %8, -3
  %switch22 = icmp ult i8 %.off21, 2
  br i1 %switch22, label %.critedge.preheader, label %._crit_edge

.critedge.preheader:                              ; preds = %.thread, %15
  br label %.critedge

.critedge:                                        ; preds = %.critedge.preheader, %.critedge
  %16 = tail call fastcc i64 @gc_onestep(ptr noundef %0)
  %17 = load i8, ptr %7, align 1, !tbaa !70
  %.off = add i8 %17, -3
  %switch = icmp ult i8 %.off, 2
  br i1 %switch, label %.critedge, label %._crit_edge, !llvm.loop !99

._crit_edge:                                      ; preds = %.critedge, %15
  store i8 0, ptr %7, align 1, !tbaa !70
  br label %18

18:                                               ; preds = %18, %._crit_edge
  %19 = tail call fastcc i64 @gc_onestep(ptr noundef %0)
  %20 = load i8, ptr %7, align 1, !tbaa !70
  %.not = icmp eq i8 %20, 0
  br i1 %.not, label %21, label %18, !llvm.loop !100

21:                                               ; preds = %18
  %22 = getelementptr inbounds nuw i8, ptr %4, i64 96
  %23 = load i64, ptr %22, align 8, !tbaa !71
  %24 = udiv i64 %23, 100
  %25 = getelementptr inbounds nuw i8, ptr %4, i64 108
  %26 = load i32, ptr %25, align 4, !tbaa !72
  %27 = zext i32 %26 to i64
  %28 = mul i64 %24, %27
  %29 = getelementptr inbounds nuw i8, ptr %4, i64 24
  store i64 %28, ptr %29, align 8, !tbaa !41
  store volatile i32 %6, ptr %5, align 8, !tbaa !66
  ret void
}